; Function Attrs: mustprogress uwtable
define void @_ZNK7rocksdb13SstFileReader18GetTablePropertiesEv(ptr dead_on_unwind noalias writable sret(%"class.std::shared_ptr.221") align 8 %0, ptr noundef nonnull readonly align 8 captures(none) dereferenceable(8) %1) local_unnamed_addr #4 align 2 {
  %3 = load ptr, ptr %1, align 8, !tbaa !18
  %4 = getelementptr inbounds nuw i8, ptr %3, i64 3224
  %5 = load ptr, ptr %4, align 8, !tbaa !50
  %6 = load ptr, ptr %5, align 8, !tbaa !52
  %7 = getelementptr inbounds nuw i8, ptr %6, i64 72
  %8 = load ptr, ptr %7, align 8
  tail call void %8(ptr dead_on_unwind writable sret(%"class.std::shared_ptr.221") align 8 %0, ptr noundef nonnull align 8 dereferenceable(8) %5)
  ret void
}